target datalayout = "e-m:e-p270:32:32-p271:32:32-p272:64:64-i64:64-i128:128-f80:128-n8:16:32:64-S128"
target triple = "x86_64-pc-linux-gnu"

%struct.Bigint = type { ptr, i32, i32, i32, i32, [1 x i32] }

@freelist = internal global [16 x ptr] zeroinitializer, align 16

; Function Attrs: inlinehint nounwind sspstrong memory(argmem: readwrite, inaccessiblemem: readwrite) uwtable
define internal i64 @rbimpl_atomic_size_cas(ptr noundef nonnull %0, i64 noundef %1, i64 noundef %2) #7 {
  %4 = alloca ptr, align 8
  %5 = alloca i64, align 8
  %6 = alloca i64, align 8
  %7 = alloca i64, align 8
  %8 = alloca i8, align 1
  store ptr %0, ptr %4, align 8, !tbaa !14
  store i64 %1, ptr %5, align 8, !tbaa !12
  store i64 %2, ptr %6, align 8, !tbaa !12
  %9 = load ptr, ptr %4, align 8, !tbaa !14
  %10 = load i64, ptr %6, align 8, !tbaa !12
  store i64 %10, ptr %7, align 8, !tbaa !12
  %11 = load i64, ptr %5, align 8
  %12 = load i64, ptr %7, align 8
  %13 = cmpxchg volatile ptr %9, i64 %11, i64 %12 seq_cst seq_cst, align 8
  %14 = extractvalue { i64, i1 } %13, 0
  %15 = extractvalue { i64, i1 } %13, 1
  br i1 %15, label %17, label %16

16:                                               ; preds = %3
  store i64 %14, ptr %5, align 8
  br label %17

17:                                               ; preds = %16, %3
  %18 = zext i1 %15 to i8
  store i8 %18, ptr %8, align 1, !tbaa !101
  %19 = load i64, ptr %5, align 8, !tbaa !12
  ret i64 %19
}

; Function Attrs: inlinehint nounwind sspstrong memory(argmem: readwrite, inaccessiblemem: readwrite) uwtable
define internal ptr @rbimpl_atomic_ptr_cas(ptr noundef nonnull %0, ptr noundef %1, ptr noundef %2) #7 {
  %4 = alloca ptr, align 8
  %5 = alloca ptr, align 8
  %6 = alloca ptr, align 8
  %7 = alloca i64, align 8
  %8 = alloca i64, align 8
  %9 = alloca ptr, align 8
  %10 = alloca i64, align 8
  store ptr %0, ptr %4, align 8, !tbaa !28
  store ptr %1, ptr %5, align 8, !tbaa !28
  store ptr %2, ptr %6, align 8, !tbaa !28
  call void @llvm.lifetime.start.p0(i64 8, ptr %7) #16
  %11 = load ptr, ptr %6, align 8, !tbaa !28
  %12 = ptrtoint ptr %11 to i64
  store i64 %12, ptr %7, align 8, !tbaa !12
  call void @llvm.lifetime.start.p0(i64 8, ptr %8) #16
  %13 = load ptr, ptr %5, align 8, !tbaa !28
  %14 = ptrtoint ptr %13 to i64
  store i64 %14, ptr %8, align 8, !tbaa !12
  call void @llvm.lifetime.start.p0(i64 8, ptr %9) #16
  %15 = load ptr, ptr %4, align 8, !tbaa !28
  store ptr %15, ptr %9, align 8, !tbaa !14
  call void @llvm.lifetime.start.p0(i64 8, ptr %10) #16
  %16 = load ptr, ptr %9, align 8, !tbaa !14
  %17 = load i64, ptr %8, align 8, !tbaa !12
  %18 = load i64, ptr %7, align 8, !tbaa !12
  %19 = call i64 @rbimpl_atomic_size_cas(ptr noundef %16, i64 noundef %17, i64 noundef %18) #20
  store i64 %19, ptr %10, align 8, !tbaa !12
  %20 = load i64, ptr %10, align 8, !tbaa !12
  %21 = inttoptr i64 %20 to ptr
  call void @llvm.lifetime.end.p0(i64 8, ptr %10) #16
  call void @llvm.lifetime.end.p0(i64 8, ptr %9) #16
  call void @llvm.lifetime.end.p0(i64 8, ptr %8) #16
  call void @llvm.lifetime.end.p0(i64 8, ptr %7) #16
  ret ptr %21
}

; Function Attrs: nounwind sspstrong uwtable
define internal void @Bfree(ptr noundef %0) #2 {
  %2 = alloca ptr, align 8
  %3 = alloca ptr, align 8
  %4 = alloca i32, align 4
  store ptr %0, ptr %2, align 8, !tbaa !53
  call void @llvm.lifetime.start.p0(i64 8, ptr %3) #16
  %5 = load ptr, ptr %2, align 8, !tbaa !53
  %6 = icmp ne ptr %5, null
  br i1 %6, label %7, label %54

7:                                                ; preds = %1
  %8 = load ptr, ptr %2, align 8, !tbaa !53
  %9 = getelementptr inbounds nuw %struct.Bigint, ptr %8, i32 0, i32 1
  %10 = load i32, ptr %9, align 8, !tbaa !57
  %11 = icmp sgt i32 %10, 15
  br i1 %11, label %12, label %14

12:                                               ; preds = %7
  %13 = load ptr, ptr %2, align 8, !tbaa !53
  call void @free(ptr noundef %13) #16
  store i32 1, ptr %4, align 4
  br label %55

14:                                               ; preds = %7
  br label %15

15:                                               ; preds = %36, %14
  br label %16

16:                                               ; preds = %23, %15
  %17 = load ptr, ptr %2, align 8, !tbaa !53
  %18 = getelementptr inbounds nuw %struct.Bigint, ptr %17, i32 0, i32 1
  %19 = load i32, ptr %18, align 8, !tbaa !57
  %20 = sext i32 %19 to i64
  %21 = getelementptr [16 x ptr], ptr @freelist, i64 0, i64 %20
  %22 = call ptr @rbimpl_atomic_ptr_cas(ptr noundef %21, ptr noundef null, ptr noundef null) #20
  store ptr %22, ptr %3, align 8, !tbaa !53
  br label %23

23:                                               ; preds = %16
  %24 = load ptr, ptr %3, align 8, !tbaa !53
  %25 = icmp eq ptr %24, inttoptr (i64 -1 to ptr)
  %26 = xor i1 %25, true
  %27 = xor i1 %26, true
  %28 = zext i1 %27 to i32
  %29 = sext i32 %28 to i64
  %30 = call i64 @llvm.expect.i64(i64 %29, i64 0)
  %31 = icmp ne i64 %30, 0
  br i1 %31, label %16, label %32, !llvm.loop !76

32:                                               ; preds = %23
  %33 = load ptr, ptr %3, align 8, !tbaa !53
  %34 = load ptr, ptr %2, align 8, !tbaa !53
  %35 = getelementptr inbounds nuw %struct.Bigint, ptr %34, i32 0, i32 0
  store ptr %33, ptr %35, align 8, !tbaa !64
  br label %36

36:                                               ; preds = %32
  %37 = load ptr, ptr %2, align 8, !tbaa !53
  %38 = getelementptr inbounds nuw %struct.Bigint, ptr %37, i32 0, i32 1
  %39 = load i32, ptr %38, align 8, !tbaa !57
  %40 = sext i32 %39 to i64
  %41 = getelementptr [16 x ptr], ptr @freelist, i64 0, i64 %40
  %42 = load ptr, ptr %3, align 8, !tbaa !53
  %43 = load ptr, ptr %2, align 8, !tbaa !53
  %44 = call ptr @rbimpl_atomic_ptr_cas(ptr noundef %41, ptr noundef %42, ptr noundef %43) #20
  %45 = load ptr, ptr %3, align 8, !tbaa !53
  %46 = icmp ne ptr %44, %45
  %47 = xor i1 %46, true
  %48 = xor i1 %47, true
  %49 = zext i1 %48 to i32
  %50 = sext i32 %49 to i64
  %51 = call i64 @llvm.expect.i64(i64 %50, i64 0)
  %52 = icmp ne i64 %51, 0
  br i1 %52, label %15, label %53, !llvm.loop !77

53:                                               ; preds = %36
  br label %54

54:                                               ; preds = %53, %1
  store i32 0, ptr %4, align 4
  br label %55

55:                                               ; preds = %54, %12
  call void @llvm.lifetime.end.p0(i64 8, ptr %3) #16
  %56 = load i32, ptr %4, align 4
  switch i32 %56, label %58 [
    i32 0, label %57
    i32 1, label %57
  ]

57:                                               ; preds = %55, %55
  ret void

58:                                               ; preds = %55
  unreachable
}