; Function Attrs: nounwind sspstrong uwtable
define internal fastcc void @Bfree(ptr noundef %0) unnamed_addr #2 {
  %.not = icmp eq ptr %0, null
  br i1 %.not, label %.loopexit, label %2

2:                                                ; preds = %1
  %3 = getelementptr inbounds nuw i8, ptr %0, i64 8
  %4 = load i32, ptr %3, align 8, !tbaa !54
  %5 = icmp sgt i32 %4, 15
  br i1 %5, label %7, label %.preheader

.preheader:                                       ; preds = %2
  %6 = ptrtoint ptr %0 to i64
  br label %8

7:                                                ; preds = %2
  tail call void @free(ptr noundef nonnull %0) #19
  br label %.loopexit

8:                                                ; preds = %.backedge, %.preheader
  %9 = load i32, ptr %3, align 8, !tbaa !54
  %10 = sext i32 %9 to i64
  %11 = getelementptr [16 x ptr], ptr @freelist, i64 0, i64 %10
  %12 = cmpxchg volatile ptr %11, i64 0, i64 0 seq_cst seq_cst, align 8
  %13 = extractvalue { i64, i1 } %12, 0
  %14 = icmp eq i64 %13, -1
  br i1 %14, label %.backedge, label %15, !prof !60

.backedge:                                        ; preds = %8, %15
  br label %8, !llvm.loop !61

15:                                               ; preds = %8
  %16 = inttoptr i64 %13 to ptr
  store ptr %16, ptr %0, align 8, !tbaa !50
  %17 = load i32, ptr %3, align 8, !tbaa !54
  %18 = sext i32 %17 to i64
  %19 = getelementptr [16 x ptr], ptr @freelist, i64 0, i64 %18
  %20 = cmpxchg volatile ptr %19, i64 %13, i64 %6 seq_cst seq_cst, align 8
  %.not12 = extractvalue { i64, i1 } %20, 1
  br i1 %.not12, label %.loopexit, label %.backedge, !prof !49

.loopexit:                                        ; preds = %15, %1, %7
  ret void
}